LIBRARY   SystemLib
DESCRIPTION "System lib"
EXPORTS


    ?getValue@?$SField@V?$FCPtr@V?$FCPtr@VFieldContainerPtr@osg@@VAttachment@2@@osg@@V?$GeoProperty@UGeoPTypePropertyDesc@osg@@@2@@osg@@$0A@@osg@@QAEAAV?$FCPtr@V?$FCPtr@VFieldContainerPtr@osg@@VAttachment@2@@osg@@V?$GeoProperty@UGeoPTypePropertyDesc@osg@@@2@@2@XZ
    ?getValue@?$SField@V?$FCPtr@V?$FCPtr@VFieldContainerPtr@osg@@VAttachment@2@@osg@@V?$GeoProperty@UGeoPTypePropertyDesc@osg@@@2@@osg@@$0A@@osg@@QBEABV?$FCPtr@V?$FCPtr@VFieldContainerPtr@osg@@VAttachment@2@@osg@@V?$GeoProperty@UGeoPTypePropertyDesc@osg@@@2@@2@XZ
    ?setValue@?$SField@V?$FCPtr@V?$FCPtr@VFieldContainerPtr@osg@@VAttachment@2@@osg@@V?$GeoProperty@UGeoPTypePropertyDesc@osg@@@2@@osg@@$0A@@osg@@QAEXABV?$FCPtr@V?$FCPtr@VFieldContainerPtr@osg@@VAttachment@2@@osg@@V?$GeoProperty@UGeoPTypePropertyDesc@osg@@@2@@2@@Z

    ?getValue@?$SField@V?$FCPtr@V?$FCPtr@VFieldContainerPtr@osg@@VAttachment@2@@osg@@V?$GeoProperty@UGeoPLengthPropertyDesc@osg@@@2@@osg@@$0A@@osg@@QAEAAV?$FCPtr@V?$FCPtr@VFieldContainerPtr@osg@@VAttachment@2@@osg@@V?$GeoProperty@UGeoPLengthPropertyDesc@osg@@@2@@2@XZ

    ?getValue@?$SField@V?$FCPtr@V?$FCPtr@VFieldContainerPtr@osg@@VAttachment@2@@osg@@V?$GeoProperty@UGeoPLengthPropertyDesc@osg@@@2@@osg@@$0A@@osg@@QBEABV?$FCPtr@V?$FCPtr@VFieldContainerPtr@osg@@VAttachment@2@@osg@@V?$GeoProperty@UGeoPLengthPropertyDesc@osg@@@2@@2@XZ
    ?setValue@?$SField@V?$FCPtr@V?$FCPtr@VFieldContainerPtr@osg@@VAttachment@2@@osg@@V?$GeoProperty@UGeoPLengthPropertyDesc@osg@@@2@@osg@@$0A@@osg@@QAEXABV?$FCPtr@V?$FCPtr@VFieldContainerPtr@osg@@VAttachment@2@@osg@@V?$GeoProperty@UGeoPLengthPropertyDesc@osg@@@2@@2@@Z
    ?getValue@?$SField@V?$FCPtr@V?$FCPtr@VFieldContainerPtr@osg@@VAttachment@2@@osg@@V?$AbstractGeoProperty@UGeoPositionPropertyDesc@osg@@@2@@osg@@$0A@@osg@@QAEAAV?$FCPtr@V?$FCPtr@VFieldContainerPtr@osg@@VAttachment@2@@osg@@V?$AbstractGeoProperty@UGeoPositionPropertyDesc@osg@@@2@@2@XZ

    ?getValue@?$SField@V?$FCPtr@V?$FCPtr@VFieldContainerPtr@osg@@VAttachment@2@@osg@@V?$AbstractGeoProperty@UGeoPositionPropertyDesc@osg@@@2@@osg@@$0A@@osg@@QBEABV?$FCPtr@V?$FCPtr@VFieldContainerPtr@osg@@VAttachment@2@@osg@@V?$AbstractGeoProperty@UGeoPositionPropertyDesc@osg@@@2@@2@XZ
    ?setValue@?$SField@V?$FCPtr@V?$FCPtr@VFieldContainerPtr@osg@@VAttachment@2@@osg@@V?$AbstractGeoProperty@UGeoPositionPropertyDesc@osg@@@2@@osg@@$0A@@osg@@QAEXABV?$FCPtr@V?$FCPtr@VFieldContainerPtr@osg@@VAttachment@2@@osg@@V?$AbstractGeoProperty@UGeoPositionPropertyDesc@osg@@@2@@2@@Z
    ?getValue@?$SField@V?$FCPtr@V?$FCPtr@VFieldContainerPtr@osg@@VAttachment@2@@osg@@V?$AbstractGeoProperty@UGeoNormalPropertyDesc@osg@@@2@@osg@@$0A@@osg@@QAEAAV?$FCPtr@V?$FCPtr@VFieldContainerPtr@osg@@VAttachment@2@@osg@@V?$AbstractGeoProperty@UGeoNormalPropertyDesc@osg@@@2@@2@XZ

    ?getValue@?$SField@V?$FCPtr@V?$FCPtr@VFieldContainerPtr@osg@@VAttachment@2@@osg@@V?$AbstractGeoProperty@UGeoNormalPropertyDesc@osg@@@2@@osg@@$0A@@osg@@QBEABV?$FCPtr@V?$FCPtr@VFieldContainerPtr@osg@@VAttachment@2@@osg@@V?$AbstractGeoProperty@UGeoNormalPropertyDesc@osg@@@2@@2@XZ
    ?setValue@?$SField@V?$FCPtr@V?$FCPtr@VFieldContainerPtr@osg@@VAttachment@2@@osg@@V?$AbstractGeoProperty@UGeoNormalPropertyDesc@osg@@@2@@osg@@$0A@@osg@@QAEXABV?$FCPtr@V?$FCPtr@VFieldContainerPtr@osg@@VAttachment@2@@osg@@V?$AbstractGeoProperty@UGeoNormalPropertyDesc@osg@@@2@@2@@Z

    ?getValue@?$SField@_N$01@osg@@QAEAA_NXZ
    ?getValue@?$SField@_N$01@osg@@QBEAB_NXZ
    ?setValue@?$SField@_N$01@osg@@QAEXAB_N@Z

    ?getValue@?$SField@V?$FCPtr@V?$FCPtr@VFieldContainerPtr@osg@@VAttachment@2@@osg@@V?$AbstractGeoProperty@UGeoColorPropertyDesc@osg@@@2@@osg@@$0A@@osg@@QAEAAV?$FCPtr@V?$FCPtr@VFieldContainerPtr@osg@@VAttachment@2@@osg@@V?$AbstractGeoProperty@UGeoColorPropertyDesc@osg@@@2@@2@XZ
    ?getValue@?$SField@V?$FCPtr@V?$FCPtr@VFieldContainerPtr@osg@@VAttachment@2@@osg@@V?$AbstractGeoProperty@UGeoColorPropertyDesc@osg@@@2@@osg@@$0A@@osg@@QBEABV?$FCPtr@V?$FCPtr@VFieldContainerPtr@osg@@VAttachment@2@@osg@@V?$AbstractGeoProperty@UGeoColorPropertyDesc@osg@@@2@@2@XZ
    ?setValue@?$SField@V?$FCPtr@V?$FCPtr@VFieldContainerPtr@osg@@VAttachment@2@@osg@@V?$AbstractGeoProperty@UGeoColorPropertyDesc@osg@@@2@@osg@@$0A@@osg@@QAEXABV?$FCPtr@V?$FCPtr@VFieldContainerPtr@osg@@VAttachment@2@@osg@@V?$AbstractGeoProperty@UGeoColorPropertyDesc@osg@@@2@@2@@Z

    ?getValue@?$SField@V?$FCPtr@V?$FCPtr@VFieldContainerPtr@osg@@VAttachment@2@@osg@@V?$AbstractGeoProperty@UGeoTexCoordsPropertyDesc@osg@@@2@@osg@@$0A@@osg@@QAEAAV?$FCPtr@V?$FCPtr@VFieldContainerPtr@osg@@VAttachment@2@@osg@@V?$AbstractGeoProperty@UGeoTexCoordsPropertyDesc@osg@@@2@@2@XZ
    ?getValue@?$SField@V?$FCPtr@V?$FCPtr@VFieldContainerPtr@osg@@VAttachment@2@@osg@@V?$AbstractGeoProperty@UGeoTexCoordsPropertyDesc@osg@@@2@@osg@@$0A@@osg@@QBEABV?$FCPtr@V?$FCPtr@VFieldContainerPtr@osg@@VAttachment@2@@osg@@V?$AbstractGeoProperty@UGeoTexCoordsPropertyDesc@osg@@@2@@2@XZ
    ?setValue@?$SField@V?$FCPtr@V?$FCPtr@VFieldContainerPtr@osg@@VAttachment@2@@osg@@V?$AbstractGeoProperty@UGeoTexCoordsPropertyDesc@osg@@@2@@osg@@$0A@@osg@@QAEXABV?$FCPtr@V?$FCPtr@VFieldContainerPtr@osg@@VAttachment@2@@osg@@V?$AbstractGeoProperty@UGeoTexCoordsPropertyDesc@osg@@@2@@2@@Z

    ?getValue@?$SField@V?$FCPtr@V?$FCPtr@VFieldContainerPtr@osg@@VAttachment@2@@osg@@V?$AbstractGeoProperty@UGeoIndexPropertyDesc@osg@@@2@@osg@@$0A@@osg@@QAEAAV?$FCPtr@V?$FCPtr@VFieldContainerPtr@osg@@VAttachment@2@@osg@@V?$AbstractGeoProperty@UGeoIndexPropertyDesc@osg@@@2@@2@XZ
    ?getValue@?$SField@V?$FCPtr@V?$FCPtr@VFieldContainerPtr@osg@@VAttachment@2@@osg@@V?$AbstractGeoProperty@UGeoIndexPropertyDesc@osg@@@2@@osg@@$0A@@osg@@QBEABV?$FCPtr@V?$FCPtr@VFieldContainerPtr@osg@@VAttachment@2@@osg@@V?$AbstractGeoProperty@UGeoIndexPropertyDesc@osg@@@2@@2@XZ
    ?setValue@?$SField@V?$FCPtr@V?$FCPtr@VFieldContainerPtr@osg@@VAttachment@2@@osg@@V?$AbstractGeoProperty@UGeoIndexPropertyDesc@osg@@@2@@osg@@$0A@@osg@@QAEXABV?$FCPtr@V?$FCPtr@VFieldContainerPtr@osg@@VAttachment@2@@osg@@V?$AbstractGeoProperty@UGeoIndexPropertyDesc@osg@@@2@@2@@Z

    ?getValue@?$SField@V?$FCPtr@VFieldContainerPtr@osg@@VMaterial@2@@osg@@$0A@@osg@@QAEAAV?$FCPtr@VFieldContainerPtr@osg@@VMaterial@2@@2@XZ
    ?getValue@?$SField@V?$FCPtr@VFieldContainerPtr@osg@@VMaterial@2@@osg@@$0A@@osg@@QBEABV?$FCPtr@VFieldContainerPtr@osg@@VMaterial@2@@2@XZ
    ?setValue@?$SField@V?$FCPtr@VFieldContainerPtr@osg@@VMaterial@2@@osg@@$0A@@osg@@QAEXABV?$FCPtr@VFieldContainerPtr@osg@@VMaterial@2@@2@@Z

    ?findNodeDesc@?$VRMLNodeFactory@V?$ScanParseFieldTypeMapper@VScanParseSkel@osg@@@osg@@@osg@@IAEPAVVRMLNodeDesc@2@PBD@Z
    ?addNodeDesc@?$VRMLNodeFactory@V?$ScanParseFieldTypeMapper@VScanParseSkel@osg@@@osg@@@osg@@IAEXPBDPAVVRMLNodeDesc@2@@Z
    ?beginProtoInterface@?$VRMLNodeFactory@V?$ScanParseFieldTypeMapper@VScanParseSkel@osg@@@osg@@@osg@@UAEXPBD@Z
