LIBRARY   libOSGField
DESCRIPTION "Field lib"
EXPORTS

    ?_fieldType@?$MField@VFieldContainerPtr@osg@@$0A@@osg@@2VFieldType@2@B        @1
    ?getClassType@?$MField@VFieldContainerPtr@osg@@$0A@@osg@@SAABVFieldType@2@XZ  @2
    ?getClassType@?$SField@VFieldContainerPtr@osg@@$0A@@osg@@SAABVFieldType@2@XZ  @3
    ?getType@?$MField@VFieldContainerPtr@osg@@$0A@@osg@@UBEABVFieldType@2@XZ      @4

    ?_fieldType@?$SField@VNodePtr@osg@@$0A@@osg@@2VFieldType@2@B            @10
    ?_fieldType@?$MField@VNodePtr@osg@@$0A@@osg@@2VFieldType@2@B            @11
    ?getClassType@?$MField@VNodePtr@osg@@$0A@@osg@@SAABVFieldType@2@XZ      @12
    ?getClassType@?$SField@VNodePtr@osg@@$0A@@osg@@SAABVFieldType@2@XZ      @13
    ?getType@?$MField@VNodePtr@osg@@$0A@@osg@@UBEABVFieldType@2@XZ          @14
    ?getType@?$SField@VNodePtr@osg@@$0A@@osg@@UBEABVFieldType@2@XZ          @15

    ?_fieldType@?$SField@VDynamicVolume@osg@@$0A@@osg@@2VFieldType@2@B       @20
    ?getClassType@?$SField@VDynamicVolume@osg@@$0A@@osg@@SAABVFieldType@2@XZ @21
    ?getType@?$SField@VDynamicVolume@osg@@$0A@@osg@@UBEABVFieldType@2@XZ     @22


    ?_fieldType@?$SField@VNodeCorePtr@osg@@$0A@@osg@@2VFieldType@2@B         @30
    ?getClassType@?$SField@VNodeCorePtr@osg@@$0A@@osg@@SAABVFieldType@2@XZ   @31
    ?getClassType@?$MField@VNodeCorePtr@osg@@$0A@@osg@@SAABVFieldType@2@XZ   @32
    ?getType@?$SField@VNodeCorePtr@osg@@$0A@@osg@@UBEABVFieldType@2@XZ       @33



    ?_fieldType@?$SField@VString@osg@@$0A@@osg@@2VFieldType@2@B              @40
    ?getClassType@?$SField@VString@osg@@$0A@@osg@@SAABVFieldType@2@XZ        @41
    ?getClassType@?$MField@VString@osg@@$0A@@osg@@SAABVFieldType@2@XZ        @42
    ?getType@?$SField@VString@osg@@$0A@@osg@@UBEABVFieldType@2@XZ            @43
    

    ?_fieldType@?$MField@V?$VectorInterface@MV?$VecStorage3@M@osg@@@osg@@$0A@@osg@@1VFieldType@2@B       @50
    ?getClassType@?$SField@V?$VectorInterface@MV?$VecStorage3@M@osg@@@osg@@$0A@@osg@@SAABVFieldType@2@XZ @51
    ?getClassType@?$MField@V?$VectorInterface@MV?$VecStorage3@M@osg@@@osg@@$0A@@osg@@SAABVFieldType@2@XZ @52
    ?getType@?$SField@V?$VectorInterface@MV?$VecStorage3@M@osg@@@osg@@$0A@@osg@@UBEABVFieldType@2@XZ     @53
    ?getType@?$MField@V?$VectorInterface@MV?$VecStorage3@M@osg@@@osg@@$0A@@osg@@UBEABVFieldType@2@XZ     @54


    ?_fieldType@?$SField@V?$map@IVAttachmentPtr@osg@@U?$less@I@std@@V?$allocator@VAttachmentPtr@osg@@@4@@std@@$0A@@osg@@2VFieldType@2@B       @60

    ?getClassType@?$SField@V?$map@IVAttachmentPtr@osg@@U?$less@I@std@@V?$allocator@VAttachmentPtr@osg@@@4@@std@@$0A@@osg@@SAABVFieldType@2@XZ @61

    ?getType@?$SField@V?$map@IVAttachmentPtr@osg@@U?$less@I@std@@V?$allocator@VAttachmentPtr@osg@@@4@@std@@$0A@@osg@@UBEABVFieldType@2@XZ     @62


    ?getClassType@?$SField@V?$TransformationMatrix@M@osg@@$0A@@osg@@SAABVFieldType@2@XZ @70
    ?getClassType@?$MField@V?$TransformationMatrix@M@osg@@$0A@@osg@@SAABVFieldType@2@XZ @71
    ?getType@?$SField@V?$TransformationMatrix@M@osg@@$0A@@osg@@UBEABVFieldType@2@XZ     @72

    ?getClassType@?$SField@M$0A@@osg@@SAABVFieldType@2@XZ @80
    ?getClassType@?$MField@M$0A@@osg@@SAABVFieldType@2@XZ @81
    ?getType@?$SField@M$0A@@osg@@UBEABVFieldType@2@XZ     @82
    ?getType@?$MField@M$0A@@osg@@UBEABVFieldType@2@XZ     @83

    ?getClassType@?$SField@V?$VectorInterface@MV?$VecStorage4@M@osg@@@osg@@$0A@@osg@@SAABVFieldType@2@XZ @90
    ?getClassType@?$MField@V?$VectorInterface@MV?$VecStorage4@M@osg@@@osg@@$0A@@osg@@SAABVFieldType@2@XZ @91
    ?getType@?$SField@V?$VectorInterface@MV?$VecStorage4@M@osg@@@osg@@$0A@@osg@@UBEABVFieldType@2@XZ     @92

    ?getClassType@?$MField@V?$VectorInterface@EV?$VecStorage4@E@osg@@@osg@@$0A@@osg@@SAABVFieldType@2@XZ @93
    ?getClassType@?$MField@V?$VectorInterface@EV?$VecStorage4@M@osg@@@osg@@$0A@@osg@@SAABVFieldType@2@XZ @94
    ?getType@?$MField@V?$VectorInterface@EV?$VecStorage4@E@osg@@@osg@@$0A@@osg@@UBEABVFieldType@2@XZ     @95
    ?getType@?$MField@V?$VectorInterface@EV?$VecStorage4@M@osg@@@osg@@$0A@@osg@@UBEABVFieldType@2@XZ     @96

    ?getClassType@?$SField@V?$PointInterface@MV?$VecStorage3@M@osg@@@osg@@$0A@@osg@@SAABVFieldType@2@XZ @100
    ?getClassType@?$MField@V?$PointInterface@MV?$VecStorage3@M@osg@@@osg@@$0A@@osg@@SAABVFieldType@2@XZ @101
    ?getType@?$SField@V?$PointInterface@MV?$VecStorage3@M@osg@@@osg@@$0A@@osg@@UBEABVFieldType@2@XZ     @102
    ?getType@?$MField@V?$PointInterface@MV?$VecStorage3@M@osg@@@osg@@$0A@@osg@@UBEABVFieldType@2@XZ     @103

    ?getClassType@?$SField@V?$Color4@M@osg@@$0A@@osg@@SAABVFieldType@2@XZ @110
    ?getClassType@?$MField@V?$Color4@M@osg@@$0A@@osg@@SAABVFieldType@2@XZ @111
    ?getType@?$SField@V?$Color4@M@osg@@$0A@@osg@@UBEABVFieldType@2@XZ     @112

    ?getClassType@?$SField@_N$0A@@osg@@SAABVFieldType@2@XZ @120
    ?getType@?$SField@_N$0A@@osg@@UBEABVFieldType@2@XZ     @121

    ?getClassType@?$MField@E$0A@@osg@@SAABVFieldType@2@XZ @130
    ?getClassType@?$SField@E$0A@@osg@@SAABVFieldType@2@XZ @131
    ?getType@?$MField@E$0A@@osg@@UBEABVFieldType@2@XZ     @132

    ?getClassType@?$MField@I$0A@@osg@@SAABVFieldType@2@XZ @140
    ?getClassType@?$SField@I$0A@@osg@@SAABVFieldType@2@XZ @141   
    ?getType@?$MField@I$0A@@osg@@UBEABVFieldType@2@XZ     @142

    ?getClassType@?$SField@G$0A@@osg@@SAABVFieldType@2@XZ  @150
    ?getType@?$SField@G$0A@@osg@@UBEABVFieldType@2@XZ      @151


    ?getClassType@?$MField@V?$VectorInterface@MV?$VecStorage2@M@osg@@@osg@@$0A@@osg@@SAABVFieldType@2@XZ @160
    ?getClassType@?$SField@V?$VectorInterface@MV?$VecStorage2@M@osg@@@osg@@$0A@@osg@@SAABVFieldType@2@XZ @161

    ?getClassType@?$MField@V?$QuaternionBase@M@osg@@$0A@@osg@@SAABVFieldType@2@XZ @170
    ?getClassType@?$SField@V?$QuaternionBase@M@osg@@$0A@@osg@@SAABVFieldType@2@XZ @171
    ?getType@?$MField@V?$QuaternionBase@M@osg@@$0A@@osg@@UBEABVFieldType@2@XZ     @172
    ?getType@?$SField@V?$QuaternionBase@M@osg@@$0A@@osg@@UBEABVFieldType@2@XZ     @173

    ?getClassType@?$MField@N$00@osg@@SAABVFieldType@2@XZ @180
    ?getClassType@?$SField@N$00@osg@@SAABVFieldType@2@XZ @181
    ?getType@?$SField@N$00@osg@@UBEABVFieldType@2@XZ     @182

    ?getClassType@?$MField@H$0A@@osg@@SAABVFieldType@2@XZ @190
    ?getClassType@?$SField@H$0A@@osg@@SAABVFieldType@2@XZ @191

    ?getClassType@?$SField@I$01@osg@@SAABVFieldType@2@XZ  @200
    ?getType@?$SField@I$01@osg@@UBEABVFieldType@2@XZ      @201

    ?getClassType@?$SField@_N$01@osg@@SAABVFieldType@2@XZ @210
    ?getType@?$SField@_N$01@osg@@UBEABVFieldType@2@XZ     @211

    ?getClassType@?$SField@I$00@osg@@SAABVFieldType@2@XZ           @220
    ?getType@?$MField@VString@osg@@$0A@@osg@@UBEABVFieldType@2@XZ  @221
    ?getType@?$SField@I$00@osg@@UBEABVFieldType@2@XZ               @222

    ?getClassType@?$MField@V?$Color3@M@osg@@$0A@@osg@@SAABVFieldType@2@XZ  @230
    ?getClassType@?$SField@V?$Color3@M@osg@@$0A@@osg@@SAABVFieldType@2@XZ  @231

    ?getClassType@?$SField@F$0A@@osg@@SAABVFieldType@2@XZ  @240
    ?getClassType@?$MField@F$0A@@osg@@SAABVFieldType@2@XZ  @241

    ?getClassType@?$MField@D$0A@@osg@@SAABVFieldType@2@XZ  @250
    ?getClassType@?$SField@D$0A@@osg@@SAABVFieldType@2@XZ  @251

    ?getClassType@?$MField@_N$01@osg@@SAABVFieldType@2@XZ  @260

    ?getClassType@?$MField@G$0A@@osg@@SAABVFieldType@2@XZ  @261


